target datalayout = "e-m:e-p270:32:32-p271:32:32-p272:64:64-i64:64-i128:128-f80:128-n8:16:32:64-S128"
target triple = "x86_64-pc-linux-gnu"

%"class.llvm::APInt" = type <{ %union.anon, i32, [4 x i8] }>
%union.anon = type { i64 }

; Function Attrs: mustprogress nounwind uwtable
define linkonce_odr hidden noundef i32 @_ZN4llvm6detail19LeadingZerosCounterImLm8EE5countEm(i64 noundef %0) #0 comdat align 2 {
  %2 = alloca i32, align 4
  %3 = alloca i64, align 8
  store i64 %0, ptr %3, align 8
  %4 = load i64, ptr %3, align 8
  %5 = icmp eq i64 %4, 0
  br i1 %5, label %6, label %7

6:                                                ; preds = %1
  store i32 64, ptr %2, align 4
  br label %11

7:                                                ; preds = %1
  %8 = load i64, ptr %3, align 8
  %9 = call i64 @llvm.ctlz.i64(i64 %8, i1 true)
  %10 = trunc i64 %9 to i32
  store i32 %10, ptr %2, align 4
  br label %11

11:                                               ; preds = %7, %6
  %12 = load i32, ptr %2, align 4
  ret i32 %12
}

; Function Attrs: mustprogress nounwind willreturn memory(read) uwtable
define dso_local noundef i32 @_ZNK4llvm5APInt25countLeadingZerosSlowCaseEv(ptr noundef nonnull align 8 dereferenceable(12) %0) #3 align 2 {
  %2 = alloca ptr, align 8
  %3 = alloca i32, align 4
  %4 = alloca i32, align 4
  %5 = alloca i64, align 8
  %6 = alloca i32, align 4
  store ptr %0, ptr %2, align 8
  %7 = load ptr, ptr %2, align 8
  store i32 0, ptr %3, align 4
  %8 = call noundef i32 @_ZNK4llvm5APInt11getNumWordsEv(ptr noundef nonnull align 8 dereferenceable(12) %7)
  %9 = sub i32 %8, 1
  store i32 %9, ptr %4, align 4
  br label %10

10:                                               ; preds = %31, %1
  %11 = load i32, ptr %4, align 4
  %12 = icmp sge i32 %11, 0
  br i1 %12, label %13, label %34

13:                                               ; preds = %10
  %14 = getelementptr inbounds nuw %"class.llvm::APInt", ptr %7, i32 0, i32 0
  %15 = load ptr, ptr %14, align 8
  %16 = load i32, ptr %4, align 4
  %17 = sext i32 %16 to i64
  %18 = getelementptr inbounds i64, ptr %15, i64 %17
  %19 = load i64, ptr %18, align 8
  store i64 %19, ptr %5, align 8
  %20 = load i64, ptr %5, align 8
  %21 = icmp eq i64 %20, 0
  br i1 %21, label %22, label %25

22:                                               ; preds = %13
  %23 = load i32, ptr %3, align 4
  %24 = add i32 %23, 64
  store i32 %24, ptr %3, align 4
  br label %30

25:                                               ; preds = %13
  %26 = load i64, ptr %5, align 8
  %27 = call noundef i32 @_ZN4llvm11countl_zeroImEEiT_(i64 noundef %26)
  %28 = load i32, ptr %3, align 4
  %29 = add i32 %28, %27
  store i32 %29, ptr %3, align 4
  br label %34

30:                                               ; preds = %22
  br label %31

31:                                               ; preds = %30
  %32 = load i32, ptr %4, align 4
  %33 = add nsw i32 %32, -1
  store i32 %33, ptr %4, align 4
  br label %10, !llvm.loop !24

34:                                               ; preds = %25, %10
  %35 = getelementptr inbounds nuw %"class.llvm::APInt", ptr %7, i32 0, i32 1
  %36 = load i32, ptr %35, align 8
  %37 = urem i32 %36, 64
  store i32 %37, ptr %6, align 4
  %38 = load i32, ptr %6, align 4
  %39 = icmp ugt i32 %38, 0
  br i1 %39, label %40, label %43

40:                                               ; preds = %34
  %41 = load i32, ptr %6, align 4
  %42 = sub i32 64, %41
  br label %44

43:                                               ; preds = %34
  br label %44

44:                                               ; preds = %43, %40
  %45 = phi i32 [ %42, %40 ], [ 0, %43 ]
  %46 = load i32, ptr %3, align 4
  %47 = sub i32 %46, %45
  store i32 %47, ptr %3, align 4
  %48 = load i32, ptr %3, align 4
  ret i32 %48
}

; Function Attrs: mustprogress nounwind uwtable
define linkonce_odr noundef i32 @_ZN4llvm11countl_zeroImEEiT_(i64 noundef %0) #0 comdat {
  %2 = alloca i64, align 8
  store i64 %0, ptr %2, align 8
  %3 = load i64, ptr %2, align 8
  %4 = call noundef i32 @_ZN4llvm6detail19LeadingZerosCounterImLm8EE5countEm(i64 noundef %3)
  ret i32 %4
}

; Function Attrs: mustprogress nounwind uwtable
define linkonce_odr hidden noundef i32 @_ZN4llvm5APInt11getNumWordsEj(i32 noundef %0) #0 comdat align 2 {
  %2 = alloca i32, align 4
  store i32 %0, ptr %2, align 4
  %3 = load i32, ptr %2, align 4
  %4 = zext i32 %3 to i64
  %5 = add i64 %4, 64
  %6 = sub i64 %5, 1
  %7 = udiv i64 %6, 64
  %8 = trunc i64 %7 to i32
  ret i32 %8
}

; Function Attrs: mustprogress nounwind uwtable
define linkonce_odr hidden noundef i32 @_ZNK4llvm5APInt11countl_zeroEv(ptr noundef nonnull align 8 dereferenceable(12) %0) #0 comdat align 2 {
  %2 = alloca i32, align 4
  %3 = alloca ptr, align 8
  %4 = alloca i32, align 4
  store ptr %0, ptr %3, align 8
  %5 = load ptr, ptr %3, align 8
  %6 = call noundef zeroext i1 @_ZNK4llvm5APInt12isSingleWordEv(ptr noundef nonnull align 8 dereferenceable(12) %5)
  br i1 %6, label %7, label %16

7:                                                ; preds = %1
  %8 = getelementptr inbounds nuw %"class.llvm::APInt", ptr %5, i32 0, i32 1
  %9 = load i32, ptr %8, align 8
  %10 = sub i32 64, %9
  store i32 %10, ptr %4, align 4
  %11 = getelementptr inbounds nuw %"class.llvm::APInt", ptr %5, i32 0, i32 0
  %12 = load i64, ptr %11, align 8
  %13 = call noundef i32 @_ZN4llvm11countl_zeroImEEiT_(i64 noundef %12)
  %14 = load i32, ptr %4, align 4
  %15 = sub i32 %13, %14
  store i32 %15, ptr %2, align 4
  br label %18

16:                                               ; preds = %1
  %17 = call noundef i32 @_ZNK4llvm5APInt25countLeadingZerosSlowCaseEv(ptr noundef nonnull align 8 dereferenceable(12) %5) #11
  store i32 %17, ptr %2, align 4
  br label %18

18:                                               ; preds = %16, %7
  %19 = load i32, ptr %2, align 4
  ret i32 %19
}

; Function Attrs: mustprogress nounwind uwtable
define linkonce_odr hidden noundef i32 @_ZNK4llvm5APInt11getNumWordsEv(ptr noundef nonnull align 8 dereferenceable(12) %0) #0 comdat align 2 {
  %2 = alloca ptr, align 8
  store ptr %0, ptr %2, align 8
  %3 = load ptr, ptr %2, align 8
  %4 = getelementptr inbounds nuw %"class.llvm::APInt", ptr %3, i32 0, i32 1
  %5 = load i32, ptr %4, align 8
  %6 = call noundef i32 @_ZN4llvm5APInt11getNumWordsEj(i32 noundef %5)
  ret i32 %6
}

; Function Attrs: mustprogress nounwind uwtable
define linkonce_odr hidden noundef i32 @_ZNK4llvm5APInt13getActiveBitsEv(ptr noundef nonnull align 8 dereferenceable(12) %0) #0 comdat align 2 {
  %2 = alloca ptr, align 8
  store ptr %0, ptr %2, align 8
  %3 = load ptr, ptr %2, align 8
  %4 = getelementptr inbounds nuw %"class.llvm::APInt", ptr %3, i32 0, i32 1
  %5 = load i32, ptr %4, align 8
  %6 = call noundef i32 @_ZNK4llvm5APInt11countl_zeroEv(ptr noundef nonnull align 8 dereferenceable(12) %3)
  %7 = sub i32 %5, %6
  ret i32 %7
}

; Function Attrs: mustprogress nounwind uwtable
define linkonce_odr hidden noundef nonnull align 8 dereferenceable(12) ptr @_ZN4llvm5APInt15clearUnusedBitsEv(ptr noundef nonnull align 8 dereferenceable(12) %0) #0 comdat align 2 {
  %2 = alloca ptr, align 8
  %3 = alloca i32, align 4
  %4 = alloca i64, align 8
  store ptr %0, ptr %2, align 8
  %5 = load ptr, ptr %2, align 8
  %6 = getelementptr inbounds nuw %"class.llvm::APInt", ptr %5, i32 0, i32 1
  %7 = load i32, ptr %6, align 8
  %8 = sub i32 %7, 1
  %9 = urem i32 %8, 64
  %10 = add i32 %9, 1
  store i32 %10, ptr %3, align 4
  %11 = load i32, ptr %3, align 4
  %12 = sub i32 64, %11
  %13 = zext i32 %12 to i64
  %14 = lshr i64 -1, %13
  store i64 %14, ptr %4, align 8
  %15 = getelementptr inbounds nuw %"class.llvm::APInt", ptr %5, i32 0, i32 1
  %16 = load i32, ptr %15, align 8
  %17 = icmp eq i32 %16, 0
  br i1 %17, label %18, label %19

18:                                               ; preds = %1
  store i64 0, ptr %4, align 8
  br label %19

19:                                               ; preds = %18, %1
  %20 = call noundef zeroext i1 @_ZNK4llvm5APInt12isSingleWordEv(ptr noundef nonnull align 8 dereferenceable(12) %5)
  br i1 %20, label %21, label %26

21:                                               ; preds = %19
  %22 = load i64, ptr %4, align 8
  %23 = getelementptr inbounds nuw %"class.llvm::APInt", ptr %5, i32 0, i32 0
  %24 = load i64, ptr %23, align 8
  %25 = and i64 %24, %22
  store i64 %25, ptr %23, align 8
  br label %36

26:                                               ; preds = %19
  %27 = load i64, ptr %4, align 8
  %28 = getelementptr inbounds nuw %"class.llvm::APInt", ptr %5, i32 0, i32 0
  %29 = load ptr, ptr %28, align 8
  %30 = call noundef i32 @_ZNK4llvm5APInt11getNumWordsEv(ptr noundef nonnull align 8 dereferenceable(12) %5)
  %31 = sub i32 %30, 1
  %32 = zext i32 %31 to i64
  %33 = getelementptr inbounds i64, ptr %29, i64 %32
  %34 = load i64, ptr %33, align 8
  %35 = and i64 %34, %27
  store i64 %35, ptr %33, align 8
  br label %36

36:                                               ; preds = %26, %21
  ret ptr %5
}

; Function Attrs: mustprogress nounwind uwtable
define linkonce_odr hidden noundef zeroext i1 @_ZNK4llvm5APInt12isSingleWordEv(ptr noundef nonnull align 8 dereferenceable(12) %0) #0 comdat align 2 {
  %2 = alloca ptr, align 8
  store ptr %0, ptr %2, align 8
  %3 = load ptr, ptr %2, align 8
  %4 = getelementptr inbounds nuw %"class.llvm::APInt", ptr %3, i32 0, i32 1
  %5 = load i32, ptr %4, align 8
  %6 = icmp ule i32 %5, 64
  ret i1 %6
}

; Function Attrs: mustprogress nounwind uwtable
define linkonce_odr hidden noundef i64 @_ZNK4llvm5APInt12getZExtValueEv(ptr noundef nonnull align 8 dereferenceable(12) %0) #0 comdat align 2 {
  %2 = alloca i64, align 8
  %3 = alloca ptr, align 8
  store ptr %0, ptr %3, align 8
  %4 = load ptr, ptr %3, align 8
  %5 = call noundef zeroext i1 @_ZNK4llvm5APInt12isSingleWordEv(ptr noundef nonnull align 8 dereferenceable(12) %4)
  br i1 %5, label %6, label %9

6:                                                ; preds = %1
  %7 = getelementptr inbounds nuw %"class.llvm::APInt", ptr %4, i32 0, i32 0
  %8 = load i64, ptr %7, align 8
  store i64 %8, ptr %2, align 8
  br label %14

9:                                                ; preds = %1
  %10 = getelementptr inbounds nuw %"class.llvm::APInt", ptr %4, i32 0, i32 0
  %11 = load ptr, ptr %10, align 8
  %12 = getelementptr inbounds i64, ptr %11, i64 0
  %13 = load i64, ptr %12, align 8
  store i64 %13, ptr %2, align 8
  br label %14

14:                                               ; preds = %9, %6
  %15 = load i64, ptr %2, align 8
  ret i64 %15
}

; Function Attrs: mustprogress nounwind uwtable
define linkonce_odr hidden noundef zeroext i1 @_ZNK4llvm5APInt3ugtEm(ptr noundef nonnull align 8 dereferenceable(12) %0, i64 noundef %1) #0 comdat align 2 {
  %3 = alloca ptr, align 8
  %4 = alloca i64, align 8
  store ptr %0, ptr %3, align 8
  store i64 %1, ptr %4, align 8
  %5 = load ptr, ptr %3, align 8
  %6 = call noundef zeroext i1 @_ZNK4llvm5APInt12isSingleWordEv(ptr noundef nonnull align 8 dereferenceable(12) %5)
  br i1 %6, label %10, label %7

7:                                                ; preds = %2
  %8 = call noundef i32 @_ZNK4llvm5APInt13getActiveBitsEv(ptr noundef nonnull align 8 dereferenceable(12) %5)
  %9 = icmp ugt i32 %8, 64
  br i1 %9, label %14, label %10

10:                                               ; preds = %7, %2
  %11 = call noundef i64 @_ZNK4llvm5APInt12getZExtValueEv(ptr noundef nonnull align 8 dereferenceable(12) %5)
  %12 = load i64, ptr %4, align 8
  %13 = icmp ugt i64 %11, %12
  br label %14

14:                                               ; preds = %10, %7
  %15 = phi i1 [ true, %7 ], [ %13, %10 ]
  ret i1 %15
}

; Function Attrs: mustprogress nounwind uwtable
define linkonce_odr hidden noundef nonnull align 8 dereferenceable(12) ptr @_ZN4llvm5APIntlSEj(ptr noundef nonnull align 8 dereferenceable(12) %0, i32 noundef %1) #0 comdat align 2 {
  %3 = alloca ptr, align 8
  %4 = alloca ptr, align 8
  %5 = alloca i32, align 4
  store ptr %0, ptr %4, align 8
  store i32 %1, ptr %5, align 4
  %6 = load ptr, ptr %4, align 8
  %7 = call noundef zeroext i1 @_ZNK4llvm5APInt12isSingleWordEv(ptr noundef nonnull align 8 dereferenceable(12) %6)
  br i1 %7, label %8, label %23

8:                                                ; preds = %2
  %9 = load i32, ptr %5, align 4
  %10 = getelementptr inbounds nuw %"class.llvm::APInt", ptr %6, i32 0, i32 1
  %11 = load i32, ptr %10, align 8
  %12 = icmp eq i32 %9, %11
  br i1 %12, label %13, label %15

13:                                               ; preds = %8
  %14 = getelementptr inbounds nuw %"class.llvm::APInt", ptr %6, i32 0, i32 0
  store i64 0, ptr %14, align 8
  br label %21

15:                                               ; preds = %8
  %16 = load i32, ptr %5, align 4
  %17 = getelementptr inbounds nuw %"class.llvm::APInt", ptr %6, i32 0, i32 0
  %18 = load i64, ptr %17, align 8
  %19 = zext i32 %16 to i64
  %20 = shl i64 %18, %19
  store i64 %20, ptr %17, align 8
  br label %21

21:                                               ; preds = %15, %13
  %22 = call noundef nonnull align 8 dereferenceable(12) ptr @_ZN4llvm5APInt15clearUnusedBitsEv(ptr noundef nonnull align 8 dereferenceable(12) %6)
  store ptr %22, ptr %3, align 8
  br label %25

23:                                               ; preds = %2
  %24 = load i32, ptr %5, align 4
  call void @_ZN4llvm5APInt11shlSlowCaseEj(ptr noundef nonnull align 8 dereferenceable(12) %6, i32 noundef %24)
  store ptr %6, ptr %3, align 8
  br label %25

25:                                               ; preds = %23, %21
  %26 = load ptr, ptr %3, align 8
  ret ptr %26
}

; Function Attrs: mustprogress nounwind uwtable
define linkonce_odr hidden noundef i64 @_ZNK4llvm5APInt15getLimitedValueEm(ptr noundef nonnull align 8 dereferenceable(12) %0, i64 noundef %1) #0 comdat align 2 {
  %3 = alloca ptr, align 8
  %4 = alloca i64, align 8
  store ptr %0, ptr %3, align 8
  store i64 %1, ptr %4, align 8
  %5 = load ptr, ptr %3, align 8
  %6 = load i64, ptr %4, align 8
  %7 = call noundef zeroext i1 @_ZNK4llvm5APInt3ugtEm(ptr noundef nonnull align 8 dereferenceable(12) %5, i64 noundef %6)
  br i1 %7, label %8, label %10

8:                                                ; preds = %2
  %9 = load i64, ptr %4, align 8
  br label %12

10:                                               ; preds = %2
  %11 = call noundef i64 @_ZNK4llvm5APInt12getZExtValueEv(ptr noundef nonnull align 8 dereferenceable(12) %5)
  br label %12

12:                                               ; preds = %10, %8
  %13 = phi i64 [ %9, %8 ], [ %11, %10 ]
  ret i64 %13
}

; Function Attrs: mustprogress nounwind uwtable
define dso_local noundef nonnull align 8 dereferenceable(12) ptr @_ZN4llvm5APIntlSERKS0_(ptr noundef nonnull align 8 dereferenceable(12) %0, ptr noundef nonnull align 8 dereferenceable(12) %1) #0 align 2 {
  %3 = alloca ptr, align 8
  %4 = alloca ptr, align 8
  store ptr %0, ptr %3, align 8
  store ptr %1, ptr %4, align 8
  %5 = load ptr, ptr %3, align 8
  %6 = load ptr, ptr %4, align 8
  %7 = getelementptr inbounds nuw %"class.llvm::APInt", ptr %5, i32 0, i32 1
  %8 = load i32, ptr %7, align 8
  %9 = zext i32 %8 to i64
  %10 = call noundef i64 @_ZNK4llvm5APInt15getLimitedValueEm(ptr noundef nonnull align 8 dereferenceable(12) %6, i64 noundef %9)
  %11 = trunc i64 %10 to i32
  %12 = call noundef nonnull align 8 dereferenceable(12) ptr @_ZN4llvm5APIntlSEj(ptr noundef nonnull align 8 dereferenceable(12) %5, i32 noundef %11)
  ret ptr %5
}