; Function Attrs: mustprogress nofree norecurse nosync nounwind memory(readwrite, inaccessiblemem: none) uwtable
define dso_local noundef nonnull align 8 dereferenceable(12) ptr @_ZN4llvm5APIntlSERKS0_(ptr noundef nonnull returned align 8 dereferenceable(12) %0, ptr noundef nonnull readonly align 8 captures(none) dereferenceable(12) %1) local_unnamed_addr #4 align 2 {
  %3 = getelementptr inbounds nuw i8, ptr %0, i64 8
  %4 = load i32, ptr %3, align 8
  %5 = zext i32 %4 to i64
  %6 = getelementptr inbounds nuw i8, ptr %1, i64 8
  %7 = load i32, ptr %6, align 8
  %8 = icmp ult i32 %7, 65
  %.pre.i.i = load ptr, ptr %1, align 8
  %9 = ptrtoint ptr %.pre.i.i to i64
  br i1 %8, label %_ZNK4llvm5APInt3ugtEm.exit.i, label %.lr.ph.i.i.i.i.i

.lr.ph.i.i.i.i.i:                                 ; preds = %2
  %10 = zext i32 %7 to i64
  %11 = add nuw nsw i64 %10, 63
  %12 = lshr i64 %11, 6
  br label %13

13:                                               ; preds = %18, %.lr.ph.i.i.i.i.i
  %indvars.iv.i.i.i.i = phi i64 [ %indvars.iv.next.i.i.i.i, %18 ], [ %12, %.lr.ph.i.i.i.i.i ]
  %.016.i.i.i.i.i = phi i32 [ %19, %18 ], [ 0, %.lr.ph.i.i.i.i.i ]
  %indvars.iv.next.i.i.i.i = add nsw i64 %indvars.iv.i.i.i.i, -1
  %14 = and i64 %indvars.iv.next.i.i.i.i, 4294967295
  %15 = getelementptr inbounds nuw i64, ptr %.pre.i.i, i64 %14
  %16 = load i64, ptr %15, align 8
  %17 = icmp eq i64 %16, 0
  br i1 %17, label %18, label %21

18:                                               ; preds = %13
  %19 = add i32 %.016.i.i.i.i.i, 64
  %20 = icmp samesign ugt i64 %indvars.iv.i.i.i.i, 1
  br i1 %20, label %13, label %_ZNK4llvm5APInt13getActiveBitsEv.exit.i.i, !llvm.loop !9

21:                                               ; preds = %13
  %22 = tail call range(i64 0, 65) i64 @llvm.ctlz.i64(i64 %16, i1 true)
  %23 = trunc nuw nsw i64 %22 to i32
  %24 = or disjoint i32 %.016.i.i.i.i.i, %23
  br label %_ZNK4llvm5APInt13getActiveBitsEv.exit.i.i

_ZNK4llvm5APInt13getActiveBitsEv.exit.i.i:        ; preds = %18, %21
  %.1.i.i.i.i.i = phi i32 [ %24, %21 ], [ %19, %18 ]
  %25 = and i32 %7, 63
  %.not.i.i.i.i.i = icmp eq i32 %25, 0
  %.neg.i.i.i.i.i = or i32 %7, -64
  %.neg13.i.i.i.i.i = select i1 %.not.i.i.i.i.i, i32 0, i32 %.neg.i.i.i.i.i
  %26 = add i32 %.neg13.i.i.i.i.i, %.1.i.i.i.i.i
  %27 = sub i32 %7, %26
  %28 = icmp ugt i32 %27, 64
  br i1 %28, label %_ZNK4llvm5APInt15getLimitedValueEm.exit, label %_ZNK4llvm5APInt13getActiveBitsEv.exit.i._ZNK4llvm5APInt3ugtEm.exit_crit_edge.i

_ZNK4llvm5APInt13getActiveBitsEv.exit.i._ZNK4llvm5APInt3ugtEm.exit_crit_edge.i: ; preds = %_ZNK4llvm5APInt13getActiveBitsEv.exit.i.i
  %.0.i.i.pre.i = load i64, ptr %.pre.i.i, align 8
  br label %_ZNK4llvm5APInt3ugtEm.exit.i

_ZNK4llvm5APInt3ugtEm.exit.i:                     ; preds = %_ZNK4llvm5APInt13getActiveBitsEv.exit.i._ZNK4llvm5APInt3ugtEm.exit_crit_edge.i, %2
  %.0.i.i.i = phi i64 [ %.0.i.i.pre.i, %_ZNK4llvm5APInt13getActiveBitsEv.exit.i._ZNK4llvm5APInt3ugtEm.exit_crit_edge.i ], [ %9, %2 ]
  %29 = icmp ugt i64 %.0.i.i.i, %5
  br i1 %29, label %_ZNK4llvm5APInt15getLimitedValueEm.exit, label %30

30:                                               ; preds = %_ZNK4llvm5APInt3ugtEm.exit.i
  %.0.in.i.i = select i1 %8, ptr %1, ptr %.pre.i.i
  %.0.i.i = load i64, ptr %.0.in.i.i, align 8
  %31 = trunc i64 %.0.i.i to i32
  br label %_ZNK4llvm5APInt15getLimitedValueEm.exit

_ZNK4llvm5APInt15getLimitedValueEm.exit:          ; preds = %_ZNK4llvm5APInt13getActiveBitsEv.exit.i.i, %_ZNK4llvm5APInt3ugtEm.exit.i, %30
  %32 = phi i32 [ %31, %30 ], [ %4, %_ZNK4llvm5APInt3ugtEm.exit.i ], [ %4, %_ZNK4llvm5APInt13getActiveBitsEv.exit.i.i ]
  %33 = icmp ult i32 %4, 65
  br i1 %33, label %_ZN4llvm5APInt15clearUnusedBitsEv.exit.i, label %45

_ZN4llvm5APInt15clearUnusedBitsEv.exit.i:         ; preds = %_ZNK4llvm5APInt15getLimitedValueEm.exit
  %34 = icmp eq i32 %32, %4
  %35 = load i64, ptr %0, align 8
  %36 = zext nneg i32 %32 to i64
  %37 = shl i64 %35, %36
  %storemerge.i = select i1 %34, i64 0, i64 %37
  %38 = add nuw nsw i32 %4, 63
  %39 = and i32 %38, 63
  %40 = xor i32 %39, 63
  %41 = zext nneg i32 %40 to i64
  %42 = lshr i64 -1, %41
  %43 = icmp eq i32 %4, 0
  %spec.store.select.i.i = select i1 %43, i64 0, i64 %42
  %44 = and i64 %storemerge.i, %spec.store.select.i.i
  store i64 %44, ptr %0, align 8
  br label %_ZN4llvm5APIntlSEj.exit

45:                                               ; preds = %_ZNK4llvm5APInt15getLimitedValueEm.exit
  tail call void @_ZN4llvm5APInt11shlSlowCaseEj(ptr noundef nonnull align 8 dereferenceable(12) %0, i32 noundef %32)
  br label %_ZN4llvm5APIntlSEj.exit

_ZN4llvm5APIntlSEj.exit:                          ; preds = %_ZN4llvm5APInt15clearUnusedBitsEv.exit.i, %45
  ret ptr %0
}